target datalayout = "e-m:e-p270:32:32-p271:32:32-p272:64:64-i64:64-i128:128-f80:128-n8:16:32:64-S128"
target triple = "x86_64-unknown-linux-gnu"

%"struct.node::AssertionInfo" = type { ptr, ptr, ptr }
%"class.node::MemoryRetainer" = type { ptr }
%"class.node::quic::TokenSecret" = type { %"class.node::MemoryRetainer", [16 x i8] }

@_ZZN4node4quic11TokenSecretaSEPKhE4args = internal constant %"struct.node::AssertionInfo" { ptr @.str, ptr @.str.1, ptr @.str.2 }, align 8

; Function Attrs: mustprogress nounwind uwtable
define dso_local noundef nonnull align 8 dereferenceable(24) ptr @_ZN4node4quic11TokenSecretaSEPKh(ptr noundef nonnull align 8 dereferenceable(24) %this, ptr noundef %other) #4 align 2 {
entry:
  %this.addr = alloca ptr, align 8
  %other.addr = alloca ptr, align 8
  store ptr %this, ptr %this.addr, align 8
  store ptr %other, ptr %other.addr, align 8
  %this1 = load ptr, ptr %this.addr, align 8
  br label %do.body

do.body:                                          ; preds = %entry
  %0 = load ptr, ptr %other.addr, align 8
  %cmp = icmp ne ptr %0, null
  %lnot = xor i1 %cmp, true
  %lnot2 = xor i1 %lnot, true
  %lnot3 = xor i1 %lnot2, true
  br i1 %lnot3, label %if.then, label %if.end

if.then:                                          ; preds = %do.body
  br label %do.body4

do.body4:                                         ; preds = %if.then
  call void @_ZN4node6AssertERKNS_13AssertionInfoE(ptr noundef nonnull align 8 dereferenceable(24) @_ZZN4node4quic11TokenSecretaSEPKhE4args)
  call void @abort() #11
  unreachable

do.end:                                           ; No predecessors!
  br label %if.end

if.end:                                           ; preds = %do.end, %do.body
  br label %do.end5

do.end5:                                          ; preds = %if.end
  %buf_ = getelementptr inbounds %"class.node::quic::TokenSecret", ptr %this1, i32 0, i32 1
  %arraydecay = getelementptr inbounds [16 x i8], ptr %buf_, i64 0, i64 0
  %1 = load ptr, ptr %other.addr, align 8
  call void @llvm.memcpy.p0.p0.i64(ptr align 8 %arraydecay, ptr align 1 %1, i64 16, i1 false)
  ret ptr %this1
}

; Function Attrs: mustprogress nounwind uwtable
define linkonce_odr dso_local void @_ZN4node14MemoryRetainerC2Ev(ptr noundef nonnull align 8 dereferenceable(8) %this) unnamed_addr #4 comdat align 2 {
entry:
  %this.addr = alloca ptr, align 8
  store ptr %this, ptr %this.addr, align 8
  %this1 = load ptr, ptr %this.addr, align 8
  store ptr getelementptr inbounds ({ [10 x ptr] }, ptr @_ZTVN4node14MemoryRetainerE, i32 0, i32 0, i32 2), ptr %this1, align 8
  ret void
}

; Function Attrs: mustprogress nounwind uwtable
define dso_local void @_ZN4node4quic11TokenSecretC2EPKh(ptr noundef nonnull align 8 dereferenceable(24) %this, ptr noundef %secret) unnamed_addr #4 align 2 {
entry:
  %this.addr = alloca ptr, align 8
  %secret.addr = alloca ptr, align 8
  store ptr %this, ptr %this.addr, align 8
  store ptr %secret, ptr %secret.addr, align 8
  %this1 = load ptr, ptr %this.addr, align 8
  call void @_ZN4node14MemoryRetainerC2Ev(ptr noundef nonnull align 8 dereferenceable(8) %this1) #3
  store ptr getelementptr inbounds ({ [10 x ptr] }, ptr @_ZTVN4node4quic11TokenSecretE, i32 0, i32 0, i32 2), ptr %this1, align 8
  %buf_ = getelementptr inbounds %"class.node::quic::TokenSecret", ptr %this1, i32 0, i32 1
  call void @llvm.memset.p0.i64(ptr align 8 %buf_, i8 0, i64 16, i1 false)
  %0 = load ptr, ptr %secret.addr, align 8
  %call = call noundef nonnull align 8 dereferenceable(24) ptr @_ZN4node4quic11TokenSecretaSEPKh(ptr noundef nonnull align 8 dereferenceable(24) %this1, ptr noundef %0)
  ret void
}