; Function Attrs: mustprogress nounwind uwtable
define dso_local void @_ZN4node4quic11TokenSecretC2EPKh(ptr nocapture noundef nonnull writeonly align 8 dereferenceable(24) %this, ptr noundef readonly %secret) unnamed_addr #3 align 2 {
entry:
  store ptr getelementptr inbounds ({ [10 x ptr] }, ptr @_ZTVN4node4quic11TokenSecretE, i64 0, i32 0, i64 2), ptr %this, align 8
  %buf_ = getelementptr inbounds i8, ptr %this, i64 8
  tail call void @llvm.memset.p0.i64(ptr noundef nonnull align 8 dereferenceable(16) %buf_, i8 0, i64 16, i1 false)
  %cmp.not.i = icmp eq ptr %secret, null
  br i1 %cmp.not.i, label %do.body4.i, label %_ZN4node4quic11TokenSecretaSEPKh.exit

do.body4.i:                                       ; preds = %entry
  tail call void @_ZN4node6AssertERKNS_13AssertionInfoE(ptr noundef nonnull align 8 dereferenceable(24) @_ZZN4node4quic11TokenSecretaSEPKhE4args) #17
  tail call void @abort() #18
  unreachable

_ZN4node4quic11TokenSecretaSEPKh.exit:            ; preds = %entry
  tail call void @llvm.memcpy.p0.p0.i64(ptr noundef nonnull align 8 dereferenceable(16) %buf_, ptr noundef nonnull align 1 dereferenceable(16) %secret, i64 16, i1 false)
  ret void
}